; Function Attrs: mustprogress nounwind uwtable
define dso_local ptr @_ZN5clang13SourceManager26bypassFileContentsOverrideENS_12FileEntryRefE(ptr noundef nonnull align 8 dereferenceable(696) %0, ptr %1) local_unnamed_addr #1 align 2 {
  %3 = getelementptr inbounds nuw i8, ptr %0, i64 16
  %4 = load ptr, ptr %3, align 8
  %5 = tail call ptr @_ZN5clang11FileManager13getBypassFileENS_12FileEntryRefE(ptr noundef nonnull align 8 dereferenceable(808) %4, ptr %1) #26
  %.not = icmp eq ptr %5, null
  br i1 %.not, label %8, label %6

6:                                                ; preds = %2
  %7 = tail call noundef nonnull align 8 dereferenceable(49) ptr @_ZN5clang13SourceManager23getOrCreateContentCacheENS_12FileEntryRefEb(ptr noundef nonnull align 8 dereferenceable(696) %0, ptr nonnull %5, i1 noundef zeroext false)
  br label %8

8:                                                ; preds = %2, %6
  ret ptr %5
}